target datalayout = "e-m:e-p270:32:32-p271:32:32-p272:64:64-i64:64-i128:128-f80:128-n8:16:32:64-S128"
target triple = "x86_64-pc-linux-gnu"

%struct._lv_chart_t = type { %struct._lv_obj_t, %struct.lv_ll_t, %struct.lv_ll_t, [2 x i32], [2 x i32], [2 x i32], [2 x i32], i32, i32, i32, i32, i8 }
%struct._lv_obj_t = type { ptr, ptr, ptr, ptr, ptr, %struct.lv_area_t, i32, i16, i16 }
%struct.lv_area_t = type { i32, i32, i32, i32 }
%struct.lv_ll_t = type { i32, ptr, ptr }

; Function Attrs: nounwind uwtable
define internal void @lv_chart_constructor(ptr noundef %0, ptr noundef %1) #0 {
  %3 = alloca ptr, align 8
  %4 = alloca ptr, align 8
  %5 = alloca ptr, align 8
  store ptr %0, ptr %3, align 8, !tbaa !3
  store ptr %1, ptr %4, align 8, !tbaa !3
  call void @llvm.lifetime.start.p0(i64 8, ptr %5) #5
  %6 = load ptr, ptr %4, align 8, !tbaa !3
  store ptr %6, ptr %5, align 8, !tbaa !3
  %7 = load ptr, ptr %5, align 8, !tbaa !3
  %8 = getelementptr inbounds nuw %struct._lv_chart_t, ptr %7, i32 0, i32 1
  call void @lv_ll_init(ptr noundef %8, i32 noundef 32)
  %9 = load ptr, ptr %5, align 8, !tbaa !3
  %10 = getelementptr inbounds nuw %struct._lv_chart_t, ptr %9, i32 0, i32 2
  call void @lv_ll_init(ptr noundef %10, i32 noundef 32)
  %11 = load ptr, ptr %5, align 8, !tbaa !3
  %12 = getelementptr inbounds nuw %struct._lv_chart_t, ptr %11, i32 0, i32 3
  %13 = getelementptr inbounds [2 x i32], ptr %12, i64 0, i64 0
  store i32 0, ptr %13, align 8, !tbaa !7
  %14 = load ptr, ptr %5, align 8, !tbaa !3
  %15 = getelementptr inbounds nuw %struct._lv_chart_t, ptr %14, i32 0, i32 5
  %16 = getelementptr inbounds [2 x i32], ptr %15, i64 0, i64 0
  store i32 0, ptr %16, align 8, !tbaa !7
  %17 = load ptr, ptr %5, align 8, !tbaa !3
  %18 = getelementptr inbounds nuw %struct._lv_chart_t, ptr %17, i32 0, i32 3
  %19 = getelementptr inbounds [2 x i32], ptr %18, i64 0, i64 1
  store i32 0, ptr %19, align 4, !tbaa !7
  %20 = load ptr, ptr %5, align 8, !tbaa !3
  %21 = getelementptr inbounds nuw %struct._lv_chart_t, ptr %20, i32 0, i32 5
  %22 = getelementptr inbounds [2 x i32], ptr %21, i64 0, i64 1
  store i32 0, ptr %22, align 4, !tbaa !7
  %23 = load ptr, ptr %5, align 8, !tbaa !3
  %24 = getelementptr inbounds nuw %struct._lv_chart_t, ptr %23, i32 0, i32 4
  %25 = getelementptr inbounds [2 x i32], ptr %24, i64 0, i64 0
  store i32 100, ptr %25, align 8, !tbaa !7
  %26 = load ptr, ptr %5, align 8, !tbaa !3
  %27 = getelementptr inbounds nuw %struct._lv_chart_t, ptr %26, i32 0, i32 6
  %28 = getelementptr inbounds [2 x i32], ptr %27, i64 0, i64 0
  store i32 100, ptr %28, align 8, !tbaa !7
  %29 = load ptr, ptr %5, align 8, !tbaa !3
  %30 = getelementptr inbounds nuw %struct._lv_chart_t, ptr %29, i32 0, i32 4
  %31 = getelementptr inbounds [2 x i32], ptr %30, i64 0, i64 1
  store i32 100, ptr %31, align 4, !tbaa !7
  %32 = load ptr, ptr %5, align 8, !tbaa !3
  %33 = getelementptr inbounds nuw %struct._lv_chart_t, ptr %32, i32 0, i32 6
  %34 = getelementptr inbounds [2 x i32], ptr %33, i64 0, i64 1
  store i32 100, ptr %34, align 4, !tbaa !7
  %35 = load ptr, ptr %5, align 8, !tbaa !3
  %36 = getelementptr inbounds nuw %struct._lv_chart_t, ptr %35, i32 0, i32 8
  store i32 3, ptr %36, align 4, !tbaa !9
  %37 = load ptr, ptr %5, align 8, !tbaa !3
  %38 = getelementptr inbounds nuw %struct._lv_chart_t, ptr %37, i32 0, i32 9
  store i32 5, ptr %38, align 8, !tbaa !15
  %39 = load ptr, ptr %5, align 8, !tbaa !3
  %40 = getelementptr inbounds nuw %struct._lv_chart_t, ptr %39, i32 0, i32 10
  store i32 10, ptr %40, align 4, !tbaa !16
  %41 = load ptr, ptr %5, align 8, !tbaa !3
  %42 = getelementptr inbounds nuw %struct._lv_chart_t, ptr %41, i32 0, i32 7
  store i32 2147483647, ptr %42, align 8, !tbaa !17
  %43 = load ptr, ptr %5, align 8, !tbaa !3
  %44 = getelementptr inbounds nuw %struct._lv_chart_t, ptr %43, i32 0, i32 11
  %45 = load i8, ptr %44, align 8
  %46 = and i8 %45, -8
  %47 = or i8 %46, 1
  store i8 %47, ptr %44, align 8
  %48 = load ptr, ptr %5, align 8, !tbaa !3
  %49 = getelementptr inbounds nuw %struct._lv_chart_t, ptr %48, i32 0, i32 11
  %50 = load i8, ptr %49, align 8
  %51 = and i8 %50, -9
  %52 = or i8 %51, 0
  store i8 %52, ptr %49, align 8
  call void @llvm.lifetime.end.p0(i64 8, ptr %5) #5
  ret void
}