; Function Attrs: nounwind uwtable
define internal void @lv_chart_constructor(ptr nocapture readnone %0, ptr noundef %1) #0 {
  %3 = getelementptr inbounds nuw i8, ptr %1, i64 64
  tail call void @lv_ll_init(ptr noundef nonnull %3, i32 noundef 32) #8
  %4 = getelementptr inbounds nuw i8, ptr %1, i64 88
  tail call void @lv_ll_init(ptr noundef nonnull %4, i32 noundef 32) #8
  %5 = getelementptr inbounds nuw i8, ptr %1, i64 112
  store i32 0, ptr %5, align 8, !tbaa !3
  %6 = getelementptr inbounds nuw i8, ptr %1, i64 128
  store i32 0, ptr %6, align 8, !tbaa !3
  %7 = getelementptr inbounds i8, ptr %1, i64 116
  store i32 0, ptr %7, align 4, !tbaa !3
  %8 = getelementptr inbounds i8, ptr %1, i64 132
  store i32 0, ptr %8, align 4, !tbaa !3
  %9 = getelementptr inbounds nuw i8, ptr %1, i64 120
  store i32 100, ptr %9, align 8, !tbaa !3
  %10 = getelementptr inbounds nuw i8, ptr %1, i64 136
  store i32 100, ptr %10, align 8, !tbaa !3
  %11 = getelementptr inbounds i8, ptr %1, i64 124
  store i32 100, ptr %11, align 4, !tbaa !3
  %12 = getelementptr inbounds i8, ptr %1, i64 140
  store i32 100, ptr %12, align 4, !tbaa !3
  %13 = getelementptr inbounds nuw i8, ptr %1, i64 148
  store i32 3, ptr %13, align 4, !tbaa !7
  %14 = getelementptr inbounds nuw i8, ptr %1, i64 152
  store i32 5, ptr %14, align 8, !tbaa !14
  %15 = getelementptr inbounds nuw i8, ptr %1, i64 156
  store i32 10, ptr %15, align 4, !tbaa !15
  %16 = getelementptr inbounds nuw i8, ptr %1, i64 144
  store i32 2147483647, ptr %16, align 8, !tbaa !16
  %17 = getelementptr inbounds nuw i8, ptr %1, i64 160
  %18 = load i8, ptr %17, align 8
  %19 = and i8 %18, -16
  %20 = or disjoint i8 %19, 1
  store i8 %20, ptr %17, align 8
  ret void
}